target datalayout = "e-m:e-p270:32:32-p271:32:32-p272:64:64-i64:64-i128:128-f80:128-n8:16:32:64-S128"
target triple = "x86_64-pc-linux-gnu"

%struct.__va_list_tag = type { i32, i32, ptr, ptr }

@hf_mswsp_caggregsortkey_order = internal global i32 0, align 4
@ett_CAggregSortKey = internal global i32 0, align 4
@.str.1346 = private unnamed_addr constant [11 x i8] c"ColumnSpec\00", align 1

; Function Attrs: null_pointer_is_valid sspstrong uwtable
define internal i32 @parse_CAggregSortKey(ptr noundef %0, i32 noundef %1, ptr noundef %2, ptr noundef %3, ptr noundef %4, ...) #0 {
  %6 = alloca ptr, align 8
  %7 = alloca i32, align 4
  %8 = alloca ptr, align 8
  %9 = alloca ptr, align 8
  %10 = alloca ptr, align 8
  %11 = alloca i32, align 4
  %12 = alloca ptr, align 8
  %13 = alloca ptr, align 8
  %14 = alloca ptr, align 8
  %15 = alloca [1 x %struct.__va_list_tag], align 16
  store ptr %0, ptr %6, align 8
  store i32 %1, ptr %7, align 4
  store ptr %2, ptr %8, align 8
  store ptr %3, ptr %9, align 8
  store ptr %4, ptr %10, align 8
  call void @llvm.lifetime.start.p0(i64 4, ptr %11) #11
  call void @llvm.lifetime.start.p0(i64 8, ptr %12) #11
  call void @llvm.lifetime.start.p0(i64 8, ptr %13) #11
  call void @llvm.lifetime.start.p0(i64 8, ptr %14) #11
  call void @llvm.lifetime.start.p0(i64 24, ptr %15) #11
  %16 = getelementptr inbounds [1 x %struct.__va_list_tag], ptr %15, i64 0, i64 0
  call void @llvm.va_start.p0(ptr %16)
  %17 = call ptr @wmem_packet_scope()
  %18 = load ptr, ptr %10, align 8
  %19 = getelementptr inbounds [1 x %struct.__va_list_tag], ptr %15, i64 0, i64 0
  %20 = call noalias ptr @wmem_strdup_vprintf(ptr noundef %17, ptr noundef %18, ptr noundef %19)
  store ptr %20, ptr %14, align 8
  %21 = getelementptr inbounds [1 x %struct.__va_list_tag], ptr %15, i64 0, i64 0
  call void @llvm.va_end.p0(ptr %21)
  %22 = load ptr, ptr %8, align 8
  %23 = load ptr, ptr %6, align 8
  %24 = load i32, ptr %7, align 4
  %25 = load i32, ptr @ett_CAggregSortKey, align 4
  %26 = load ptr, ptr %14, align 8
  %27 = call ptr @proto_tree_add_subtree(ptr noundef %22, ptr noundef %23, i32 noundef %24, i32 noundef 0, i32 noundef %25, ptr noundef %12, ptr noundef %26)
  store ptr %27, ptr %13, align 8
  %28 = load ptr, ptr %6, align 8
  %29 = load i32, ptr %7, align 4
  %30 = call i32 @tvb_get_letohl(ptr noundef %28, i32 noundef %29)
  store i32 %30, ptr %11, align 4
  %31 = load ptr, ptr %13, align 8
  %32 = load i32, ptr @hf_mswsp_caggregsortkey_order, align 4
  %33 = load ptr, ptr %6, align 8
  %34 = load i32, ptr %7, align 4
  %35 = load i32, ptr %11, align 4
  %36 = call ptr @proto_tree_add_uint(ptr noundef %31, i32 noundef %32, ptr noundef %33, i32 noundef %34, i32 noundef 4, i32 noundef %35)
  %37 = load i32, ptr %7, align 4
  %38 = add i32 %37, 4
  store i32 %38, ptr %7, align 4
  %39 = load ptr, ptr %6, align 8
  %40 = load i32, ptr %7, align 4
  %41 = load ptr, ptr %13, align 8
  %42 = load ptr, ptr %9, align 8
  %43 = call i32 (ptr, i32, ptr, ptr, ptr, ...) @parse_CAggregSpec(ptr noundef %39, i32 noundef %40, ptr noundef %41, ptr noundef %42, ptr noundef @.str.1346)
  store i32 %43, ptr %7, align 4
  %44 = load ptr, ptr %12, align 8
  %45 = load ptr, ptr %6, align 8
  %46 = load i32, ptr %7, align 4
  call void @proto_item_set_end(ptr noundef %44, ptr noundef %45, i32 noundef %46)
  %47 = load i32, ptr %7, align 4
  call void @llvm.lifetime.end.p0(i64 24, ptr %15) #11
  call void @llvm.lifetime.end.p0(i64 8, ptr %14) #11
  call void @llvm.lifetime.end.p0(i64 8, ptr %13) #11
  call void @llvm.lifetime.end.p0(i64 8, ptr %12) #11
  call void @llvm.lifetime.end.p0(i64 4, ptr %11) #11
  ret i32 %47
}