; Function Attrs: null_pointer_is_valid sspstrong uwtable
define internal noundef i32 @parse_CAggregSortKey(ptr noundef %0, i32 noundef %1, ptr noundef %2, ptr noundef %3, ptr readnone captures(none) %4, ...) unnamed_addr #0 {
  %6 = alloca ptr, align 8
  %7 = alloca [1 x %struct.__va_list_tag], align 16
  call void @llvm.lifetime.start.p0(i64 8, ptr nonnull %6) #11
  call void @llvm.lifetime.start.p0(i64 24, ptr nonnull %7) #11
  call void @llvm.va_start.p0(ptr nonnull %7)
  %8 = call ptr @wmem_packet_scope()
  %9 = call noalias ptr @wmem_strdup_vprintf(ptr noundef %8, ptr noundef nonnull @.str.1345, ptr noundef nonnull %7)
  call void @llvm.va_end.p0(ptr nonnull %7)
  %10 = load i32, ptr @ett_CAggregSortKey, align 4
  %11 = call ptr @proto_tree_add_subtree(ptr noundef %2, ptr noundef %0, i32 noundef %1, i32 noundef 0, i32 noundef %10, ptr noundef nonnull %6, ptr noundef %9)
  %12 = call i32 @tvb_get_letohl(ptr noundef %0, i32 noundef %1)
  %13 = load i32, ptr @hf_mswsp_caggregsortkey_order, align 4
  %14 = call ptr @proto_tree_add_uint(ptr noundef %11, i32 noundef %13, ptr noundef %0, i32 noundef %1, i32 noundef 4, i32 noundef %12)
  %15 = add i32 %1, 4
  %16 = call i32 (ptr, i32, ptr, ptr, ptr, ...) @parse_CAggregSpec(ptr noundef %0, i32 noundef %15, ptr noundef %11, ptr noundef %3, ptr noundef nonnull @.str.1346)
  %17 = load ptr, ptr %6, align 8
  call void @proto_item_set_end(ptr noundef %17, ptr noundef %0, i32 noundef %16)
  call void @llvm.lifetime.end.p0(i64 24, ptr nonnull %7) #11
  call void @llvm.lifetime.end.p0(i64 8, ptr nonnull %6) #11
  ret i32 %16
}